(dp0
VNO4_R
p1
V574.3,600
p2
sVNO4_L
p3
V0,600
p4
sVNO2_R
p5
V574.3,200
p6
sVNO2_L
p7
V0,200
p8
sVNO5_L
p9
V0,800
p10
sVNO3_L
p11
V0,400
p12
sVNO5_R
p13
V574.3,800
p14
sVNO1_L
p15
V0,0
p16
sVNO3_R
p17
V574.3,400
p18
sVNO1_R
p19
V574.3,0
p20
s.